target datalayout = "e-m:e-p270:32:32-p271:32:32-p272:64:64-i64:64-i128:128-f80:128-n8:16:32:64-S128"
target triple = "x86_64-pc-linux-gnu"

@proto_register_soupbintcp.ett = internal global [1 x ptr] [ptr @ett_soupbintcp], align 8
@.str.37 = private unnamed_addr constant [11 x i8] c"SoupBinTCP\00", align 1
@.str.38 = private unnamed_addr constant [11 x i8] c"soupbintcp\00", align 1
@proto_soupbintcp = internal global i32 0, align 4
@soupbintcp_handle = internal global ptr null, align 8
@.str.39 = private unnamed_addr constant [10 x i8] c"desegment\00", align 1
@.str.40 = private unnamed_addr constant [62 x i8] c"Reassemble SoupBinTCP messages spanning multiple TCP segments\00", align 1
@.str.41 = private unnamed_addr constant [92 x i8] c"Whether the SoupBinTCP dissector should reassemble messages spanning multiple TCP segments.\00", align 1
@soupbintcp_desegment = internal global i8 1, align 1
@.str.42 = private unnamed_addr constant [29 x i8] c"SoupBinTCP encapsulated data\00", align 1
@heur_subdissector_list = internal global ptr null, align 8

; Function Attrs: null_pointer_is_valid sspstrong uwtable
define hidden void @proto_register_soupbintcp() #0 {
  %1 = alloca ptr, align 8
  %2 = alloca ptr, align 8
  call void @llvm.lifetime.start.p0(i64 8, ptr %1) #4
  call void @llvm.lifetime.start.p0(i64 8, ptr %2) #4
  %3 = call i32 @proto_register_protocol(ptr noundef @.str.37, ptr noundef @.str.37, ptr noundef @.str.38)
  store i32 %3, ptr @proto_soupbintcp, align 4
  %4 = load i32, ptr @proto_soupbintcp, align 4
  %5 = call ptr @register_dissector(ptr noundef @.str.38, ptr noundef @dissect_soupbintcp_tcp, i32 noundef %4)
  store ptr %5, ptr @soupbintcp_handle, align 8
  %6 = load i32, ptr @proto_soupbintcp, align 4
  call void @proto_register_field_array(i32 noundef %6, ptr noundef @proto_register_soupbintcp.hf, i32 noundef 11)
  call void @proto_register_subtree_array(ptr noundef @proto_register_soupbintcp.ett, i32 noundef 1)
  %7 = load i32, ptr @proto_soupbintcp, align 4
  %8 = call ptr @prefs_register_protocol(i32 noundef %7, ptr noundef null)
  store ptr %8, ptr %2, align 8
  %9 = load ptr, ptr %2, align 8
  call void @prefs_register_bool_preference(ptr noundef %9, ptr noundef @.str.39, ptr noundef @.str.40, ptr noundef @.str.41, ptr noundef @soupbintcp_desegment)
  %10 = load i32, ptr @proto_soupbintcp, align 4
  %11 = call ptr @register_heur_dissector_list_with_description(ptr noundef @.str.38, ptr noundef @.str.42, i32 noundef %10)
  store ptr %11, ptr @heur_subdissector_list, align 8
  %12 = load i32, ptr @proto_soupbintcp, align 4
  %13 = call ptr @expert_register_protocol(i32 noundef %12)
  store ptr %13, ptr %1, align 8
  %14 = load ptr, ptr %1, align 8
  call void @expert_register_field_array(ptr noundef %14, ptr noundef @proto_register_soupbintcp.ei, i32 noundef 2)
  call void @llvm.lifetime.end.p0(i64 8, ptr %2) #4
  call void @llvm.lifetime.end.p0(i64 8, ptr %1) #4
  ret void
}