; Function Attrs: null_pointer_is_valid sspstrong uwtable
define hidden void @proto_register_soupbintcp() local_unnamed_addr #0 {
  %1 = tail call i32 @proto_register_protocol(ptr noundef nonnull @.str.37, ptr noundef nonnull @.str.37, ptr noundef nonnull @.str.38)
  store i32 %1, ptr @proto_soupbintcp, align 4
  %2 = tail call ptr @register_dissector(ptr noundef nonnull @.str.38, ptr noundef nonnull @dissect_soupbintcp_tcp, i32 noundef %1)
  store ptr %2, ptr @soupbintcp_handle, align 8
  %3 = load i32, ptr @proto_soupbintcp, align 4
  tail call void @proto_register_field_array(i32 noundef %3, ptr noundef nonnull @proto_register_soupbintcp.hf, i32 noundef 11)
  tail call void @proto_register_subtree_array(ptr noundef nonnull @proto_register_soupbintcp.ett, i32 noundef 1)
  %4 = load i32, ptr @proto_soupbintcp, align 4
  %5 = tail call ptr @prefs_register_protocol(i32 noundef %4, ptr noundef null)
  tail call void @prefs_register_bool_preference(ptr noundef %5, ptr noundef nonnull @.str.39, ptr noundef nonnull @.str.40, ptr noundef nonnull @.str.41, ptr noundef nonnull @soupbintcp_desegment)
  %6 = load i32, ptr @proto_soupbintcp, align 4
  %7 = tail call ptr @register_heur_dissector_list_with_description(ptr noundef nonnull @.str.38, ptr noundef nonnull @.str.42, i32 noundef %6)
  store ptr %7, ptr @heur_subdissector_list, align 8
  %8 = load i32, ptr @proto_soupbintcp, align 4
  %9 = tail call ptr @expert_register_protocol(i32 noundef %8)
  tail call void @expert_register_field_array(ptr noundef %9, ptr noundef nonnull @proto_register_soupbintcp.ei, i32 noundef 2)
  ret void
}